; ModuleID = '26/1114.c'
source_filename = "26/1114.c"
target datalayout = "e-m:e-p270:32:32-p271:32:32-p272:64:64-i64:64-f80:128-n8:16:32:64-S128"
target triple = "x86_64-pc-linux-gnu"

@.str = private unnamed_addr constant [3 x i8] c"%c\00", align 1

; Function Attrs: noinline nounwind uwtable
define dso_local i32 @main() #0 {
  %1 = alloca i32, align 4
  %2 = alloca [101 x i8], align 16
  %3 = alloca i32, align 4
  store i32 0, i32* %1, align 4
  %4 = getelementptr inbounds [101 x i8], [101 x i8]* %2, i64 0, i64 0
  %5 = call i32 (i8*, ...) bitcast (i32 (...)* @gets to i32 (i8*, ...)*)(i8* %4)
  store i32 0, i32* %3, align 4
  br label %6

6:                                                ; preds = %36, %0
  %7 = load i32, i32* %3, align 4
  %8 = sext i32 %7 to i64
  %9 = getelementptr inbounds [101 x i8], [101 x i8]* %2, i64 0, i64 0
  %10 = call i64 @strlen(i8* %9) #3
  %11 = sub i64 %10, 1
  %12 = icmp ult i64 %8, %11
  br i1 %12, label %13, label %39

13:                                               ; preds = %6
  %14 = load i32, i32* %3, align 4
  %15 = sext i32 %14 to i64
  %16 = getelementptr inbounds [101 x i8], [101 x i8]* %2, i64 0, i64 %15
  %17 = load i8, i8* %16, align 1
  %18 = sext i8 %17 to i32
  %19 = icmp ne i32 %18, 32
  br i1 %19, label %28, label %20

20:                                               ; preds = %13
  %21 = load i32, i32* %3, align 4
  %22 = add nsw i32 %21, 1
  %23 = sext i32 %22 to i64
  %24 = getelementptr inbounds [101 x i8], [101 x i8]* %2, i64 0, i64 %23
  %25 = load i8, i8* %24, align 1
  %26 = sext i8 %25 to i32
  %27 = icmp ne i32 %26, 32
  br i1 %27, label %28, label %35

28:                                               ; preds = %20, %13
  %29 = load i32, i32* %3, align 4
  %30 = sext i32 %29 to i64
  %31 = getelementptr inbounds [101 x i8], [101 x i8]* %2, i64 0, i64 %30
  %32 = load i8, i8* %31, align 1
  %33 = sext i8 %32 to i32
  %34 = call i32 (i8*, ...) @printf(i8* getelementptr inbounds ([3 x i8], [3 x i8]* @.str, i64 0, i64 0), i32 %33)
  br label %35

35:                                               ; preds = %28, %20
  br label %36

36:                                               ; preds = %35
  %37 = load i32, i32* %3, align 4
  %38 = add nsw i32 %37, 1
  store i32 %38, i32* %3, align 4
  br label %6

39:                                               ; preds = %6
  %40 = getelementptr inbounds [101 x i8], [101 x i8]* %2, i64 0, i64 0
  %41 = call i64 @strlen(i8* %40) #3
  %42 = sub i64 %41, 1
  %43 = getelementptr inbounds [101 x i8], [101 x i8]* %2, i64 0, i64 %42
  %44 = load i8, i8* %43, align 1
  %45 = sext i8 %44 to i32
  %46 = call i32 (i8*, ...) @printf(i8* getelementptr inbounds ([3 x i8], [3 x i8]* @.str, i64 0, i64 0), i32 %45)
  %47 = load i32, i32* %1, align 4
  ret i32 %47
}

declare dso_local i32 @gets(...) #1

; Function Attrs: nounwind readonly
declare dso_local i64 @strlen(i8*) #2

declare dso_local i32 @printf(i8*, ...) #1


!llvm.module.flags = !{!0}
!llvm.ident = !{!1}

!0 = !{i32 1, !"wchar_size", i32 4}
!1 = !{!"clang version 10.0.0-4ubuntu1 "}
